target datalayout = "e-m:e-p270:32:32-p271:32:32-p272:64:64-i64:64-i128:128-f80:128-n8:16:32:64-S128"
target triple = "x86_64-pc-linux-gnu"

%union.PGAlignedXLogBlock = type { double, [8184 x i8] }
%struct.dirent = type { i64, i64, i16, i8, [256 x i8] }
%struct.XLogLongPageHeaderData = type { %struct.XLogPageHeaderData, i64, i32, i32 }
%struct.XLogPageHeaderData = type { i16, i16, i32, i64, i32 }

@WalSegSz = internal global i32 0, align 4
@.str.94 = private unnamed_addr constant [6 x i8] c"%s/%s\00", align 1
@.str.100 = private unnamed_addr constant [52 x i8] c"invalid WAL segment size in WAL file \22%s\22 (%d byte)\00", align 1
@.str.101 = private unnamed_addr constant [53 x i8] c"invalid WAL segment size in WAL file \22%s\22 (%d bytes)\00", align 1
@.str.102 = private unnamed_addr constant [67 x i8] c"The WAL segment size must be a power of two between 1 MB and 1 GB.\00", align 1
@.str.103 = private unnamed_addr constant [29 x i8] c"could not read file \22%s\22: %m\00", align 1
@.str.104 = private unnamed_addr constant [40 x i8] c"could not read file \22%s\22: read %d of %d\00", align 1
@.str.105 = private unnamed_addr constant [17 x i8] c"0123456789ABCDEF\00", align 1
@.str.106 = private unnamed_addr constant [29 x i8] c"could not open file \22%s\22: %m\00", align 1

; Function Attrs: inlinehint nounwind uwtable
define internal zeroext i1 @IsXLogFileName(ptr noundef %0) #7 {
  %2 = alloca ptr, align 8
  store ptr %0, ptr %2, align 8
  %3 = load ptr, ptr %2, align 8
  %4 = call i64 @strlen(ptr noundef %3) #11
  %5 = icmp eq i64 %4, 24
  br i1 %5, label %6, label %10

6:                                                ; preds = %1
  %7 = load ptr, ptr %2, align 8
  %8 = call i64 @strspn(ptr noundef %7, ptr noundef @.str.105) #11
  %9 = icmp eq i64 %8, 24
  br label %10

10:                                               ; preds = %6, %1
  %11 = phi i1 [ false, %1 ], [ %9, %6 ]
  ret i1 %11
}

; Function Attrs: nounwind uwtable
define internal i32 @open_file_in_directory(ptr noundef %0, ptr noundef %1) #0 {
  %3 = alloca ptr, align 8
  %4 = alloca ptr, align 8
  %5 = alloca i32, align 4
  %6 = alloca [1024 x i8], align 16
  store ptr %0, ptr %3, align 8
  store ptr %1, ptr %4, align 8
  call void @llvm.lifetime.start.p0(i64 4, ptr %5) #10
  store i32 -1, ptr %5, align 4
  call void @llvm.lifetime.start.p0(i64 1024, ptr %6) #10
  %7 = getelementptr inbounds [1024 x i8], ptr %6, i64 0, i64 0
  %8 = load ptr, ptr %3, align 8
  %9 = load ptr, ptr %4, align 8
  %10 = call i32 (ptr, i64, ptr, ...) @pg_snprintf(ptr noundef %7, i64 noundef 1024, ptr noundef @.str.94, ptr noundef %8, ptr noundef %9)
  %11 = getelementptr inbounds [1024 x i8], ptr %6, i64 0, i64 0
  %12 = call i32 (ptr, i32, ...) @open(ptr noundef %11, i32 noundef 0, i32 noundef 0)
  store i32 %12, ptr %5, align 4
  %13 = load i32, ptr %5, align 4
  %14 = icmp slt i32 %13, 0
  br i1 %14, label %15, label %24

15:                                               ; preds = %2
  %16 = call ptr @__errno_location() #13
  %17 = load i32, ptr %16, align 4
  %18 = icmp ne i32 %17, 2
  br i1 %18, label %19, label %24

19:                                               ; preds = %15
  br label %20

20:                                               ; preds = %19
  %21 = load ptr, ptr %4, align 8
  call void (i32, i32, ptr, ...) @pg_log_generic(i32 noundef 4, i32 noundef 0, ptr noundef @.str.106, ptr noundef %21)
  call void @exit(i32 noundef 1) #12
  unreachable

22:                                               ; No predecessors!
  br label %23

23:                                               ; preds = %22
  br label %24

24:                                               ; preds = %23, %15, %2
  %25 = load i32, ptr %5, align 4
  call void @llvm.lifetime.end.p0(i64 1024, ptr %6) #10
  call void @llvm.lifetime.end.p0(i64 4, ptr %5) #10
  ret i32 %25
}

; Function Attrs: nounwind uwtable
define internal zeroext i1 @search_directory(ptr noundef %0, ptr noundef %1) #0 {
  %3 = alloca i1, align 1
  %4 = alloca ptr, align 8
  %5 = alloca ptr, align 8
  %6 = alloca i32, align 4
  %7 = alloca ptr, align 8
  %8 = alloca ptr, align 8
  %9 = alloca %union.PGAlignedXLogBlock, align 4096
  %10 = alloca i32, align 4
  %11 = alloca ptr, align 8
  %12 = alloca i32, align 4
  store ptr %0, ptr %4, align 8
  store ptr %1, ptr %5, align 8
  call void @llvm.lifetime.start.p0(i64 4, ptr %6) #10
  store i32 -1, ptr %6, align 4
  call void @llvm.lifetime.start.p0(i64 8, ptr %7) #10
  %13 = load ptr, ptr %5, align 8
  %14 = icmp ne ptr %13, null
  br i1 %14, label %15, label %19

15:                                               ; preds = %2
  %16 = load ptr, ptr %4, align 8
  %17 = load ptr, ptr %5, align 8
  %18 = call i32 @open_file_in_directory(ptr noundef %16, ptr noundef %17)
  store i32 %18, ptr %6, align 4
  br label %48

19:                                               ; preds = %2
  %20 = load ptr, ptr %4, align 8
  %21 = call ptr @opendir(ptr noundef %20)
  store ptr %21, ptr %7, align 8
  %22 = icmp ne ptr %21, null
  br i1 %22, label %23, label %47

23:                                               ; preds = %19
  call void @llvm.lifetime.start.p0(i64 8, ptr %8) #10
  br label %24

24:                                               ; preds = %43, %23
  %25 = load ptr, ptr %7, align 8
  %26 = call ptr @readdir(ptr noundef %25)
  store ptr %26, ptr %8, align 8
  %27 = icmp ne ptr %26, null
  br i1 %27, label %28, label %44

28:                                               ; preds = %24
  %29 = load ptr, ptr %8, align 8
  %30 = getelementptr inbounds nuw %struct.dirent, ptr %29, i32 0, i32 4
  %31 = getelementptr inbounds [256 x i8], ptr %30, i64 0, i64 0
  %32 = call zeroext i1 @IsXLogFileName(ptr noundef %31)
  br i1 %32, label %33, label %43

33:                                               ; preds = %28
  %34 = load ptr, ptr %4, align 8
  %35 = load ptr, ptr %8, align 8
  %36 = getelementptr inbounds nuw %struct.dirent, ptr %35, i32 0, i32 4
  %37 = getelementptr inbounds [256 x i8], ptr %36, i64 0, i64 0
  %38 = call i32 @open_file_in_directory(ptr noundef %34, ptr noundef %37)
  store i32 %38, ptr %6, align 4
  %39 = load ptr, ptr %8, align 8
  %40 = getelementptr inbounds nuw %struct.dirent, ptr %39, i32 0, i32 4
  %41 = getelementptr inbounds [256 x i8], ptr %40, i64 0, i64 0
  %42 = call ptr @pg_strdup(ptr noundef %41)
  store ptr %42, ptr %5, align 8
  br label %44

43:                                               ; preds = %28
  br label %24, !llvm.loop !18

44:                                               ; preds = %33, %24
  %45 = load ptr, ptr %7, align 8
  %46 = call i32 @closedir(ptr noundef %45)
  call void @llvm.lifetime.end.p0(i64 8, ptr %8) #10
  br label %47

47:                                               ; preds = %44, %19
  br label %48

48:                                               ; preds = %47, %15
  %49 = load i32, ptr %6, align 4
  %50 = icmp sge i32 %49, 0
  br i1 %50, label %51, label %102

51:                                               ; preds = %48
  call void @llvm.lifetime.start.p0(i64 8192, ptr %9) #10
  call void @llvm.lifetime.start.p0(i64 4, ptr %10) #10
  %52 = load i32, ptr %6, align 4
  %53 = getelementptr inbounds [8192 x i8], ptr %9, i64 0, i64 0
  %54 = call i64 @read(i32 noundef %52, ptr noundef %53, i64 noundef 8192)
  %55 = trunc i64 %54 to i32
  store i32 %55, ptr %10, align 4
  %56 = load i32, ptr %10, align 4
  %57 = icmp eq i32 %56, 8192
  br i1 %57, label %58, label %84

58:                                               ; preds = %51
  call void @llvm.lifetime.start.p0(i64 8, ptr %11) #10
  %59 = getelementptr inbounds [8192 x i8], ptr %9, i64 0, i64 0
  store ptr %59, ptr %11, align 8
  %60 = load ptr, ptr %11, align 8
  %61 = getelementptr inbounds nuw %struct.XLogLongPageHeaderData, ptr %60, i32 0, i32 2
  %62 = load i32, ptr %61, align 8
  store i32 %62, ptr @WalSegSz, align 4
  %63 = load i32, ptr @WalSegSz, align 4
  %64 = icmp sgt i32 %63, 0
  br i1 %64, label %65, label %77

65:                                               ; preds = %58
  %66 = load i32, ptr @WalSegSz, align 4
  %67 = load i32, ptr @WalSegSz, align 4
  %68 = sub i32 %67, 1
  %69 = and i32 %66, %68
  %70 = icmp eq i32 %69, 0
  br i1 %70, label %71, label %77

71:                                               ; preds = %65
  %72 = load i32, ptr @WalSegSz, align 4
  %73 = icmp sge i32 %72, 1048576
  br i1 %73, label %74, label %77

74:                                               ; preds = %71
  %75 = load i32, ptr @WalSegSz, align 4
  %76 = icmp sle i32 %75, 1073741824
  br i1 %76, label %83, label %77

77:                                               ; preds = %74, %71, %65, %58
  %78 = load i32, ptr @WalSegSz, align 4
  %79 = icmp eq i32 %78, 1
  %80 = select i1 %79, ptr @.str.100, ptr @.str.101
  %81 = load ptr, ptr %5, align 8
  %82 = load i32, ptr @WalSegSz, align 4
  call void (i32, i32, ptr, ...) @pg_log_generic(i32 noundef 4, i32 noundef 0, ptr noundef %80, ptr noundef %81, i32 noundef %82)
  call void (i32, i32, ptr, ...) @pg_log_generic(i32 noundef 4, i32 noundef 1, ptr noundef @.str.102)
  call void @exit(i32 noundef 1) #12
  unreachable

83:                                               ; preds = %74
  call void @llvm.lifetime.end.p0(i64 8, ptr %11) #10
  br label %99

84:                                               ; preds = %51
  %85 = load i32, ptr %10, align 4
  %86 = icmp slt i32 %85, 0
  br i1 %86, label %87, label %92

87:                                               ; preds = %84
  br label %88

88:                                               ; preds = %87
  %89 = load ptr, ptr %5, align 8
  call void (i32, i32, ptr, ...) @pg_log_generic(i32 noundef 4, i32 noundef 0, ptr noundef @.str.103, ptr noundef %89)
  call void @exit(i32 noundef 1) #12
  unreachable

90:                                               ; No predecessors!
  br label %91

91:                                               ; preds = %90
  br label %98

92:                                               ; preds = %84
  br label %93

93:                                               ; preds = %92
  %94 = load ptr, ptr %5, align 8
  %95 = load i32, ptr %10, align 4
  call void (i32, i32, ptr, ...) @pg_log_generic(i32 noundef 4, i32 noundef 0, ptr noundef @.str.104, ptr noundef %94, i32 noundef %95, i32 noundef 8192)
  call void @exit(i32 noundef 1) #12
  unreachable

96:                                               ; No predecessors!
  br label %97

97:                                               ; preds = %96
  br label %98

98:                                               ; preds = %97, %91
  br label %99

99:                                               ; preds = %98, %83
  %100 = load i32, ptr %6, align 4
  %101 = call i32 @close(i32 noundef %100)
  store i1 true, ptr %3, align 1
  store i32 1, ptr %12, align 4
  call void @llvm.lifetime.end.p0(i64 4, ptr %10) #10
  call void @llvm.lifetime.end.p0(i64 8192, ptr %9) #10
  br label %103

102:                                              ; preds = %48
  store i1 false, ptr %3, align 1
  store i32 1, ptr %12, align 4
  br label %103

103:                                              ; preds = %102, %99
  call void @llvm.lifetime.end.p0(i64 8, ptr %7) #10
  call void @llvm.lifetime.end.p0(i64 4, ptr %6) #10
  %104 = load i1, ptr %3, align 1
  ret i1 %104
}