; Function Attrs: nounwind uwtable
define internal fastcc noundef zeroext i1 @search_directory(ptr noundef %0, ptr noundef %1) unnamed_addr #0 {
  %3 = alloca [1024 x i8], align 16
  %4 = alloca [1024 x i8], align 16
  %5 = alloca %union.PGAlignedXLogBlock, align 4096
  %.not = icmp eq ptr %1, null
  br i1 %.not, label %14, label %6

6:                                                ; preds = %2
  call void @llvm.lifetime.start.p0(i64 1024, ptr nonnull %4) #16
  %7 = call i32 (ptr, i64, ptr, ...) @pg_snprintf(ptr noundef nonnull %4, i64 noundef 1024, ptr noundef nonnull @.str.94, ptr noundef %0, ptr noundef nonnull %1) #16
  %8 = call i32 (ptr, i32, ...) @open(ptr noundef nonnull %4, i32 noundef 0, i32 noundef 0) #16
  %9 = icmp slt i32 %8, 0
  br i1 %9, label %10, label %open_file_in_directory.exit

10:                                               ; preds = %6
  %11 = tail call ptr @__errno_location() #19
  %12 = load i32, ptr %11, align 4
  %.not.i = icmp eq i32 %12, 2
  br i1 %.not.i, label %open_file_in_directory.exit, label %13

13:                                               ; preds = %10
  call void (i32, i32, ptr, ...) @pg_log_generic(i32 noundef 4, i32 noundef 0, ptr noundef nonnull @.str.106, ptr noundef nonnull %1) #16
  call void @exit(i32 noundef 1) #20
  unreachable

open_file_in_directory.exit:                      ; preds = %6, %10
  call void @llvm.lifetime.end.p0(i64 1024, ptr nonnull %4) #16
  br label %35

14:                                               ; preds = %2
  %15 = tail call ptr @opendir(ptr noundef %0)
  %.not32 = icmp eq ptr %15, null
  br i1 %.not32, label %.thread, label %IsXLogFileName.exit.preheader

IsXLogFileName.exit.preheader:                    ; preds = %14
  %16 = tail call ptr @readdir(ptr noundef nonnull %15) #16
  %.not3338 = icmp eq ptr %16, null
  br i1 %.not3338, label %.loopexit, label %.lr.ph

.lr.ph:                                           ; preds = %IsXLogFileName.exit.preheader, %IsXLogFileName.exit.backedge
  %17 = phi ptr [ %24, %IsXLogFileName.exit.backedge ], [ %16, %IsXLogFileName.exit.preheader ]
  %18 = getelementptr inbounds nuw i8, ptr %17, i64 19
  %19 = tail call i64 @strlen(ptr noundef nonnull readonly dereferenceable(1) %18) #17
  %20 = icmp eq i64 %19, 24
  br i1 %20, label %21, label %IsXLogFileName.exit.backedge

21:                                               ; preds = %.lr.ph
  %22 = tail call i64 @strspn(ptr noundef nonnull readonly %18, ptr noundef nonnull @.str.105) #17
  %23 = icmp eq i64 %22, 24
  br i1 %23, label %25, label %IsXLogFileName.exit.backedge

IsXLogFileName.exit.backedge:                     ; preds = %21, %.lr.ph
  %24 = tail call ptr @readdir(ptr noundef nonnull %15) #16
  %.not33 = icmp eq ptr %24, null
  br i1 %.not33, label %.loopexit, label %.lr.ph, !llvm.loop !18

25:                                               ; preds = %21
  call void @llvm.lifetime.start.p0(i64 1024, ptr nonnull %3) #16
  %26 = call i32 (ptr, i64, ptr, ...) @pg_snprintf(ptr noundef nonnull %3, i64 noundef 1024, ptr noundef nonnull @.str.94, ptr noundef %0, ptr noundef nonnull %18) #16
  %27 = call i32 (ptr, i32, ...) @open(ptr noundef nonnull %3, i32 noundef 0, i32 noundef 0) #16
  %28 = icmp slt i32 %27, 0
  br i1 %28, label %29, label %open_file_in_directory.exit35

29:                                               ; preds = %25
  %30 = tail call ptr @__errno_location() #19
  %31 = load i32, ptr %30, align 4
  %.not.i34 = icmp eq i32 %31, 2
  br i1 %.not.i34, label %open_file_in_directory.exit35, label %32

32:                                               ; preds = %29
  call void (i32, i32, ptr, ...) @pg_log_generic(i32 noundef 4, i32 noundef 0, ptr noundef nonnull @.str.106, ptr noundef nonnull %18) #16
  call void @exit(i32 noundef 1) #20
  unreachable

open_file_in_directory.exit35:                    ; preds = %25, %29
  call void @llvm.lifetime.end.p0(i64 1024, ptr nonnull %3) #16
  %33 = call ptr @pg_strdup(ptr noundef nonnull %18) #16
  br label %.loopexit

.loopexit:                                        ; preds = %IsXLogFileName.exit.backedge, %IsXLogFileName.exit.preheader, %open_file_in_directory.exit35
  %.125 = phi i32 [ %27, %open_file_in_directory.exit35 ], [ -1, %IsXLogFileName.exit.preheader ], [ -1, %IsXLogFileName.exit.backedge ]
  %.1 = phi ptr [ %33, %open_file_in_directory.exit35 ], [ null, %IsXLogFileName.exit.preheader ], [ null, %IsXLogFileName.exit.backedge ]
  %34 = call i32 @closedir(ptr noundef nonnull %15)
  br label %35

35:                                               ; preds = %.loopexit, %open_file_in_directory.exit
  %.024 = phi i32 [ %8, %open_file_in_directory.exit ], [ %.125, %.loopexit ]
  %.023 = phi ptr [ %1, %open_file_in_directory.exit ], [ %.1, %.loopexit ]
  %36 = icmp sgt i32 %.024, -1
  br i1 %36, label %37, label %.thread

37:                                               ; preds = %35
  call void @llvm.lifetime.start.p0(i64 8192, ptr nonnull %5) #16
  %38 = call i64 @read(i32 noundef %.024, ptr noundef nonnull %5, i64 noundef 8192) #16
  %39 = trunc i64 %38 to i32
  %40 = icmp eq i32 %39, 8192
  br i1 %40, label %41, label %55

41:                                               ; preds = %37
  %42 = getelementptr inbounds nuw i8, ptr %5, i64 32
  %43 = load i32, ptr %42, align 32
  store i32 %43, ptr @WalSegSz, align 4
  %44 = icmp sgt i32 %43, 0
  br i1 %44, label %45, label %50

45:                                               ; preds = %41
  %46 = call range(i32 1, 32) i32 @llvm.ctpop.i32(i32 %43)
  %47 = icmp samesign ult i32 %46, 2
  %48 = add nsw i32 %43, -1048576
  %49 = icmp ult i32 %48, 1072693249
  %or.cond3 = and i1 %47, %49
  br i1 %or.cond3, label %53, label %50

50:                                               ; preds = %45, %41
  %51 = icmp eq i32 %43, 1
  %52 = select i1 %51, ptr @.str.100, ptr @.str.101
  call void (i32, i32, ptr, ...) @pg_log_generic(i32 noundef 4, i32 noundef 0, ptr noundef nonnull %52, ptr noundef %.023, i32 noundef %43) #16
  call void (i32, i32, ptr, ...) @pg_log_generic(i32 noundef 4, i32 noundef 1, ptr noundef nonnull @.str.102) #16
  call void @exit(i32 noundef 1) #20
  unreachable

53:                                               ; preds = %45
  %54 = call i32 @close(i32 noundef %.024) #16
  call void @llvm.lifetime.end.p0(i64 8192, ptr nonnull %5) #16
  br label %.thread

55:                                               ; preds = %37
  %56 = icmp slt i32 %39, 0
  br i1 %56, label %57, label %58

57:                                               ; preds = %55
  call void (i32, i32, ptr, ...) @pg_log_generic(i32 noundef 4, i32 noundef 0, ptr noundef nonnull @.str.103, ptr noundef %.023) #16
  call void @exit(i32 noundef 1) #20
  unreachable

58:                                               ; preds = %55
  call void (i32, i32, ptr, ...) @pg_log_generic(i32 noundef 4, i32 noundef 0, ptr noundef nonnull @.str.104, ptr noundef %.023, i32 noundef %39, i32 noundef 8192) #16
  call void @exit(i32 noundef 1) #20
  unreachable

.thread:                                          ; preds = %14, %35, %53
  %59 = phi i1 [ false, %35 ], [ true, %53 ], [ false, %14 ]
  ret i1 %59
}